; Function Attrs: nounwind uwtable
define ptr @l_Lake_toUpperCamelCaseString(ptr noundef %0) local_unnamed_addr #0 {
  %2 = tail call ptr @l_String_splitAux___at_Lake_toUpperCamelCaseString___spec__2(ptr noundef %0, ptr noundef nonnull inttoptr (i64 1 to ptr), ptr noundef nonnull inttoptr (i64 1 to ptr), ptr noundef nonnull inttoptr (i64 1 to ptr))
  %3 = tail call ptr @l_List_mapTR_loop___at_Lake_toUpperCamelCaseString___spec__3(ptr noundef %2, ptr noundef nonnull inttoptr (i64 1 to ptr))
  %4 = load ptr, ptr @l_Lake_toUpperCamelCaseString___closed__1, align 8, !tbaa !12
  %5 = tail call ptr @l_List_foldl___at_String_join___spec__1(ptr noundef %4, ptr noundef %3) #3
  %6 = ptrtoint ptr %3 to i64
  %7 = and i64 %6, 1
  %.not = icmp eq i64 %7, 0
  br i1 %.not, label %8, label %lean_dec.exit

8:                                                ; preds = %1
  %9 = load i32, ptr %3, align 4, !tbaa !8
  %10 = icmp sgt i32 %9, 1
  br i1 %10, label %11, label %13, !prof !11

11:                                               ; preds = %8
  %12 = add nsw i32 %9, -1
  store i32 %12, ptr %3, align 4, !tbaa !8
  br label %lean_dec.exit

13:                                               ; preds = %8
  %.not.i = icmp eq i32 %9, 0
  br i1 %.not.i, label %lean_dec.exit, label %14

14:                                               ; preds = %13
  tail call void @lean_dec_ref_cold(ptr noundef nonnull %3) #3
  br label %lean_dec.exit

lean_dec.exit:                                    ; preds = %14, %13, %11, %1
  ret ptr %5
}